target datalayout = "e-m:e-p270:32:32-p271:32:32-p272:64:64-i64:64-i128:128-f80:128-n8:16:32:64-S128"
target triple = "x86_64-unknown-linux-gnu"

%"class.std::basic_string_view" = type { i64, ptr }
%"class.grpc_core::ValidationErrors::ScopedField" = type { ptr }
%"struct.grpc_core::RingHashConfig" = type { i64, i64 }

@.str.5 = private unnamed_addr constant [13 x i8] c".minRingSize\00", align 1
@.str.6 = private unnamed_addr constant [34 x i8] c"must be in the range [1, 8388608]\00", align 1
@.str.7 = private unnamed_addr constant [13 x i8] c".maxRingSize\00", align 1
@.str.8 = private unnamed_addr constant [51 x i8] c"max_ring_size cannot be smaller than min_ring_size\00", align 1

; Function Attrs: mustprogress nounwind uwtable
define linkonce_odr noundef i64 @_ZNSt11char_traitsIcE6lengthEPKc(ptr noundef %__s) #5 comdat align 2 {
entry:
  %__s.addr = alloca ptr, align 8
  store ptr %__s, ptr %__s.addr, align 8
  %0 = load ptr, ptr %__s.addr, align 8
  %call = call i64 @strlen(ptr noundef %0) #3
  ret i64 %call
}

; Function Attrs: mustprogress uwtable
define linkonce_odr void @_ZN9grpc_core16ValidationErrors11ScopedFieldC2EPS0_St17basic_string_viewIcSt11char_traitsIcEE(ptr noundef nonnull align 8 dereferenceable(8) %this, ptr noundef %errors, i64 %field_name.coerce0, ptr %field_name.coerce1) unnamed_addr #4 comdat align 2 {
entry:
  %field_name = alloca %"class.std::basic_string_view", align 8
  %this.addr = alloca ptr, align 8
  %errors.addr = alloca ptr, align 8
  %agg.tmp = alloca %"class.std::basic_string_view", align 8
  %0 = getelementptr inbounds { i64, ptr }, ptr %field_name, i32 0, i32 0
  store i64 %field_name.coerce0, ptr %0, align 8
  %1 = getelementptr inbounds { i64, ptr }, ptr %field_name, i32 0, i32 1
  store ptr %field_name.coerce1, ptr %1, align 8
  store ptr %this, ptr %this.addr, align 8
  store ptr %errors, ptr %errors.addr, align 8
  %this1 = load ptr, ptr %this.addr, align 8
  %errors_ = getelementptr inbounds %"class.grpc_core::ValidationErrors::ScopedField", ptr %this1, i32 0, i32 0
  %2 = load ptr, ptr %errors.addr, align 8
  store ptr %2, ptr %errors_, align 8
  %errors_2 = getelementptr inbounds %"class.grpc_core::ValidationErrors::ScopedField", ptr %this1, i32 0, i32 0
  %3 = load ptr, ptr %errors_2, align 8
  call void @llvm.memcpy.p0.p0.i64(ptr align 8 %agg.tmp, ptr align 8 %field_name, i64 16, i1 false)
  %4 = getelementptr inbounds { i64, ptr }, ptr %agg.tmp, i32 0, i32 0
  %5 = load i64, ptr %4, align 8
  %6 = getelementptr inbounds { i64, ptr }, ptr %agg.tmp, i32 0, i32 1
  %7 = load ptr, ptr %6, align 8
  call void @_ZN9grpc_core16ValidationErrors9PushFieldESt17basic_string_viewIcSt11char_traitsIcEE(ptr noundef nonnull align 8 dereferenceable(72) %3, i64 %5, ptr %7)
  ret void
}

; Function Attrs: mustprogress nounwind uwtable
define linkonce_odr void @_ZNSt17basic_string_viewIcSt11char_traitsIcEEC2EPKc(ptr noundef nonnull align 8 dereferenceable(16) %this, ptr noundef nonnull %__str) unnamed_addr #5 comdat align 2 personality ptr @__gxx_personality_v0 {
entry:
  %this.addr = alloca ptr, align 8
  %__str.addr = alloca ptr, align 8
  store ptr %this, ptr %this.addr, align 8
  store ptr %__str, ptr %__str.addr, align 8
  %this1 = load ptr, ptr %this.addr, align 8
  %_M_len = getelementptr inbounds %"class.std::basic_string_view", ptr %this1, i32 0, i32 0
  %0 = load ptr, ptr %__str.addr, align 8
  %call = invoke noundef i64 @_ZNSt11char_traitsIcE6lengthEPKc(ptr noundef %0)
          to label %invoke.cont unwind label %terminate.lpad

invoke.cont:                                      ; preds = %entry
  store i64 %call, ptr %_M_len, align 8
  %_M_str = getelementptr inbounds %"class.std::basic_string_view", ptr %this1, i32 0, i32 1
  %1 = load ptr, ptr %__str.addr, align 8
  store ptr %1, ptr %_M_str, align 8
  ret void

terminate.lpad:                                   ; preds = %entry
  %2 = landingpad { ptr, i32 }
          catch ptr null
  %3 = extractvalue { ptr, i32 } %2, 0
  call void @__clang_call_terminate(ptr %3) #15
  unreachable
}

; Function Attrs: mustprogress uwtable
define void @_ZN9grpc_core14RingHashConfig12JsonPostLoadERKNS_12experimental4JsonERKNS_8JsonArgsEPNS_16ValidationErrorsE(ptr noundef nonnull align 8 dereferenceable(16) %this, ptr noundef nonnull align 8 dereferenceable(56) %0, ptr noundef nonnull align 8 dereferenceable(8) %1, ptr noundef %errors) #4 align 2 personality ptr @__gxx_personality_v0 {
entry:
  %this.addr = alloca ptr, align 8
  %.addr = alloca ptr, align 8
  %.addr1 = alloca ptr, align 8
  %errors.addr = alloca ptr, align 8
  %field = alloca %"class.grpc_core::ValidationErrors::ScopedField", align 8
  %agg.tmp = alloca %"class.std::basic_string_view", align 8
  %exn.slot = alloca ptr, align 8
  %ehselector.slot = alloca i32, align 4
  %agg.tmp5 = alloca %"class.std::basic_string_view", align 8
  %field7 = alloca %"class.grpc_core::ValidationErrors::ScopedField", align 8
  %agg.tmp8 = alloca %"class.std::basic_string_view", align 8
  %agg.tmp18 = alloca %"class.std::basic_string_view", align 8
  %agg.tmp25 = alloca %"class.std::basic_string_view", align 8
  store ptr %this, ptr %this.addr, align 8
  store ptr %0, ptr %.addr, align 8
  store ptr %1, ptr %.addr1, align 8
  store ptr %errors, ptr %errors.addr, align 8
  %this2 = load ptr, ptr %this.addr, align 8
  %2 = load ptr, ptr %errors.addr, align 8
  call void @_ZNSt17basic_string_viewIcSt11char_traitsIcEEC2EPKc(ptr noundef nonnull align 8 dereferenceable(16) %agg.tmp, ptr noundef @.str.5) #3
  %3 = getelementptr inbounds { i64, ptr }, ptr %agg.tmp, i32 0, i32 0
  %4 = load i64, ptr %3, align 8
  %5 = getelementptr inbounds { i64, ptr }, ptr %agg.tmp, i32 0, i32 1
  %6 = load ptr, ptr %5, align 8
  call void @_ZN9grpc_core16ValidationErrors11ScopedFieldC2EPS0_St17basic_string_viewIcSt11char_traitsIcEE(ptr noundef nonnull align 8 dereferenceable(8) %field, ptr noundef %2, i64 %4, ptr %6)
  %7 = load ptr, ptr %errors.addr, align 8
  %call = invoke noundef zeroext i1 @_ZNK9grpc_core16ValidationErrors14FieldHasErrorsEv(ptr noundef nonnull align 8 dereferenceable(72) %7)
          to label %invoke.cont unwind label %lpad

invoke.cont:                                      ; preds = %entry
  br i1 %call, label %if.end, label %land.lhs.true

land.lhs.true:                                    ; preds = %invoke.cont
  %min_ring_size = getelementptr inbounds %"struct.grpc_core::RingHashConfig", ptr %this2, i32 0, i32 0
  %8 = load i64, ptr %min_ring_size, align 8
  %cmp = icmp eq i64 %8, 0
  br i1 %cmp, label %if.then, label %lor.lhs.false

lor.lhs.false:                                    ; preds = %land.lhs.true
  %min_ring_size3 = getelementptr inbounds %"struct.grpc_core::RingHashConfig", ptr %this2, i32 0, i32 0
  %9 = load i64, ptr %min_ring_size3, align 8
  %cmp4 = icmp ugt i64 %9, 8388608
  br i1 %cmp4, label %if.then, label %if.end

if.then:                                          ; preds = %lor.lhs.false, %land.lhs.true
  %10 = load ptr, ptr %errors.addr, align 8
  call void @_ZNSt17basic_string_viewIcSt11char_traitsIcEEC2EPKc(ptr noundef nonnull align 8 dereferenceable(16) %agg.tmp5, ptr noundef @.str.6) #3
  %11 = getelementptr inbounds { i64, ptr }, ptr %agg.tmp5, i32 0, i32 0
  %12 = load i64, ptr %11, align 8
  %13 = getelementptr inbounds { i64, ptr }, ptr %agg.tmp5, i32 0, i32 1
  %14 = load ptr, ptr %13, align 8
  invoke void @_ZN9grpc_core16ValidationErrors8AddErrorESt17basic_string_viewIcSt11char_traitsIcEE(ptr noundef nonnull align 8 dereferenceable(72) %10, i64 %12, ptr %14)
          to label %invoke.cont6 unwind label %lpad

invoke.cont6:                                     ; preds = %if.then
  br label %if.end

lpad:                                             ; preds = %if.then, %entry
  %15 = landingpad { ptr, i32 }
          cleanup
  %16 = extractvalue { ptr, i32 } %15, 0
  store ptr %16, ptr %exn.slot, align 8
  %17 = extractvalue { ptr, i32 } %15, 1
  store i32 %17, ptr %ehselector.slot, align 4
  call void @_ZN9grpc_core16ValidationErrors11ScopedFieldD2Ev(ptr noundef nonnull align 8 dereferenceable(8) %field) #3
  br label %eh.resume

if.end:                                           ; preds = %invoke.cont6, %lor.lhs.false, %invoke.cont
  call void @_ZN9grpc_core16ValidationErrors11ScopedFieldD2Ev(ptr noundef nonnull align 8 dereferenceable(8) %field) #3
  %18 = load ptr, ptr %errors.addr, align 8
  call void @_ZNSt17basic_string_viewIcSt11char_traitsIcEEC2EPKc(ptr noundef nonnull align 8 dereferenceable(16) %agg.tmp8, ptr noundef @.str.7) #3
  %19 = getelementptr inbounds { i64, ptr }, ptr %agg.tmp8, i32 0, i32 0
  %20 = load i64, ptr %19, align 8
  %21 = getelementptr inbounds { i64, ptr }, ptr %agg.tmp8, i32 0, i32 1
  %22 = load ptr, ptr %21, align 8
  call void @_ZN9grpc_core16ValidationErrors11ScopedFieldC2EPS0_St17basic_string_viewIcSt11char_traitsIcEE(ptr noundef nonnull align 8 dereferenceable(8) %field7, ptr noundef %18, i64 %20, ptr %22)
  %23 = load ptr, ptr %errors.addr, align 8
  %call11 = invoke noundef zeroext i1 @_ZNK9grpc_core16ValidationErrors14FieldHasErrorsEv(ptr noundef nonnull align 8 dereferenceable(72) %23)
          to label %invoke.cont10 unwind label %lpad9

invoke.cont10:                                    ; preds = %if.end
  br i1 %call11, label %if.end20, label %land.lhs.true12

land.lhs.true12:                                  ; preds = %invoke.cont10
  %max_ring_size = getelementptr inbounds %"struct.grpc_core::RingHashConfig", ptr %this2, i32 0, i32 1
  %24 = load i64, ptr %max_ring_size, align 8
  %cmp13 = icmp eq i64 %24, 0
  br i1 %cmp13, label %if.then17, label %lor.lhs.false14

lor.lhs.false14:                                  ; preds = %land.lhs.true12
  %max_ring_size15 = getelementptr inbounds %"struct.grpc_core::RingHashConfig", ptr %this2, i32 0, i32 1
  %25 = load i64, ptr %max_ring_size15, align 8
  %cmp16 = icmp ugt i64 %25, 8388608
  br i1 %cmp16, label %if.then17, label %if.end20

if.then17:                                        ; preds = %lor.lhs.false14, %land.lhs.true12
  %26 = load ptr, ptr %errors.addr, align 8
  call void @_ZNSt17basic_string_viewIcSt11char_traitsIcEEC2EPKc(ptr noundef nonnull align 8 dereferenceable(16) %agg.tmp18, ptr noundef @.str.6) #3
  %27 = getelementptr inbounds { i64, ptr }, ptr %agg.tmp18, i32 0, i32 0
  %28 = load i64, ptr %27, align 8
  %29 = getelementptr inbounds { i64, ptr }, ptr %agg.tmp18, i32 0, i32 1
  %30 = load ptr, ptr %29, align 8
  invoke void @_ZN9grpc_core16ValidationErrors8AddErrorESt17basic_string_viewIcSt11char_traitsIcEE(ptr noundef nonnull align 8 dereferenceable(72) %26, i64 %28, ptr %30)
          to label %invoke.cont19 unwind label %lpad9

invoke.cont19:                                    ; preds = %if.then17
  br label %if.end20

lpad9:                                            ; preds = %if.then17, %if.end
  %31 = landingpad { ptr, i32 }
          cleanup
  %32 = extractvalue { ptr, i32 } %31, 0
  store ptr %32, ptr %exn.slot, align 8
  %33 = extractvalue { ptr, i32 } %31, 1
  store i32 %33, ptr %ehselector.slot, align 4
  call void @_ZN9grpc_core16ValidationErrors11ScopedFieldD2Ev(ptr noundef nonnull align 8 dereferenceable(8) %field7) #3
  br label %eh.resume

if.end20:                                         ; preds = %invoke.cont19, %lor.lhs.false14, %invoke.cont10
  call void @_ZN9grpc_core16ValidationErrors11ScopedFieldD2Ev(ptr noundef nonnull align 8 dereferenceable(8) %field7) #3
  %min_ring_size21 = getelementptr inbounds %"struct.grpc_core::RingHashConfig", ptr %this2, i32 0, i32 0
  %34 = load i64, ptr %min_ring_size21, align 8
  %max_ring_size22 = getelementptr inbounds %"struct.grpc_core::RingHashConfig", ptr %this2, i32 0, i32 1
  %35 = load i64, ptr %max_ring_size22, align 8
  %cmp23 = icmp ugt i64 %34, %35
  br i1 %cmp23, label %if.then24, label %if.end26

if.then24:                                        ; preds = %if.end20
  %36 = load ptr, ptr %errors.addr, align 8
  call void @_ZNSt17basic_string_viewIcSt11char_traitsIcEEC2EPKc(ptr noundef nonnull align 8 dereferenceable(16) %agg.tmp25, ptr noundef @.str.8) #3
  %37 = getelementptr inbounds { i64, ptr }, ptr %agg.tmp25, i32 0, i32 0
  %38 = load i64, ptr %37, align 8
  %39 = getelementptr inbounds { i64, ptr }, ptr %agg.tmp25, i32 0, i32 1
  %40 = load ptr, ptr %39, align 8
  call void @_ZN9grpc_core16ValidationErrors8AddErrorESt17basic_string_viewIcSt11char_traitsIcEE(ptr noundef nonnull align 8 dereferenceable(72) %36, i64 %38, ptr %40)
  br label %if.end26

if.end26:                                         ; preds = %if.then24, %if.end20
  ret void

eh.resume:                                        ; preds = %lpad9, %lpad
  %exn = load ptr, ptr %exn.slot, align 8
  %sel = load i32, ptr %ehselector.slot, align 4
  %lpad.val = insertvalue { ptr, i32 } poison, ptr %exn, 0
  %lpad.val27 = insertvalue { ptr, i32 } %lpad.val, i32 %sel, 1
  resume { ptr, i32 } %lpad.val27
}