; Function Attrs: mustprogress uwtable
define void @_ZN9grpc_core14RingHashConfig12JsonPostLoadERKNS_12experimental4JsonERKNS_8JsonArgsEPNS_16ValidationErrorsE(ptr nocapture noundef nonnull readonly align 8 dereferenceable(16) %this, ptr nocapture nonnull readnone align 8 %0, ptr nocapture nonnull readnone align 8 %1, ptr noundef nonnull %errors) local_unnamed_addr #3 align 2 personality ptr @__gxx_personality_v0 {
entry:
  %field = alloca %"class.grpc_core::ValidationErrors::ScopedField", align 8
  %field7 = alloca %"class.grpc_core::ValidationErrors::ScopedField", align 8
  store ptr %errors, ptr %field, align 8
  tail call void @_ZN9grpc_core16ValidationErrors9PushFieldESt17basic_string_viewIcSt11char_traitsIcEE(ptr noundef nonnull align 8 dereferenceable(72) %errors, i64 12, ptr nonnull @.str.5)
  %call = invoke noundef zeroext i1 @_ZNK9grpc_core16ValidationErrors14FieldHasErrorsEv(ptr noundef nonnull align 8 dereferenceable(72) %errors)
          to label %invoke.cont unwind label %lpad

invoke.cont:                                      ; preds = %entry
  br i1 %call, label %if.then.i, label %land.lhs.true

land.lhs.true:                                    ; preds = %invoke.cont
  %2 = load i64, ptr %this, align 8
  %3 = add i64 %2, -8388609
  %or.cond = icmp ult i64 %3, -8388608
  br i1 %or.cond, label %if.then, label %if.then.i

if.then:                                          ; preds = %land.lhs.true
  invoke void @_ZN9grpc_core16ValidationErrors8AddErrorESt17basic_string_viewIcSt11char_traitsIcEE(ptr noundef nonnull align 8 dereferenceable(72) %errors, i64 33, ptr nonnull @.str.6)
          to label %if.then.i unwind label %lpad

lpad:                                             ; preds = %if.then, %entry
  %4 = landingpad { ptr, i32 }
          cleanup
  br label %eh.resume

if.then.i:                                        ; preds = %invoke.cont, %if.then, %land.lhs.true
  invoke void @_ZN9grpc_core16ValidationErrors8PopFieldEv(ptr noundef nonnull align 8 dereferenceable(72) %errors)
          to label %_ZN9grpc_core16ValidationErrors11ScopedFieldD2Ev.exit unwind label %terminate.lpad.i

terminate.lpad.i:                                 ; preds = %if.then.i
  %5 = landingpad { ptr, i32 }
          catch ptr null
  %6 = extractvalue { ptr, i32 } %5, 0
  tail call void @__clang_call_terminate(ptr %6) #26
  unreachable

_ZN9grpc_core16ValidationErrors11ScopedFieldD2Ev.exit: ; preds = %if.then.i
  store ptr %errors, ptr %field7, align 8
  tail call void @_ZN9grpc_core16ValidationErrors9PushFieldESt17basic_string_viewIcSt11char_traitsIcEE(ptr noundef nonnull align 8 dereferenceable(72) %errors, i64 12, ptr nonnull @.str.7)
  %call11 = invoke noundef zeroext i1 @_ZNK9grpc_core16ValidationErrors14FieldHasErrorsEv(ptr noundef nonnull align 8 dereferenceable(72) %errors)
          to label %invoke.cont10 unwind label %lpad9

invoke.cont10:                                    ; preds = %_ZN9grpc_core16ValidationErrors11ScopedFieldD2Ev.exit
  br i1 %call11, label %if.then.i17, label %land.lhs.true12

land.lhs.true12:                                  ; preds = %invoke.cont10
  %max_ring_size = getelementptr inbounds i8, ptr %this, i64 8
  %7 = load i64, ptr %max_ring_size, align 8
  %8 = add i64 %7, -8388609
  %or.cond9 = icmp ult i64 %8, -8388608
  br i1 %or.cond9, label %if.then17, label %if.then.i17

if.then17:                                        ; preds = %land.lhs.true12
  invoke void @_ZN9grpc_core16ValidationErrors8AddErrorESt17basic_string_viewIcSt11char_traitsIcEE(ptr noundef nonnull align 8 dereferenceable(72) %errors, i64 33, ptr nonnull @.str.6)
          to label %if.then.i17 unwind label %lpad9

lpad9:                                            ; preds = %if.then17, %_ZN9grpc_core16ValidationErrors11ScopedFieldD2Ev.exit
  %9 = landingpad { ptr, i32 }
          cleanup
  br label %eh.resume

if.then.i17:                                      ; preds = %invoke.cont10, %if.then17, %land.lhs.true12
  invoke void @_ZN9grpc_core16ValidationErrors8PopFieldEv(ptr noundef nonnull align 8 dereferenceable(72) %errors)
          to label %_ZN9grpc_core16ValidationErrors11ScopedFieldD2Ev.exit19 unwind label %terminate.lpad.i18

terminate.lpad.i18:                               ; preds = %if.then.i17
  %10 = landingpad { ptr, i32 }
          catch ptr null
  %11 = extractvalue { ptr, i32 } %10, 0
  tail call void @__clang_call_terminate(ptr %11) #26
  unreachable

_ZN9grpc_core16ValidationErrors11ScopedFieldD2Ev.exit19: ; preds = %if.then.i17
  %12 = load i64, ptr %this, align 8
  %max_ring_size22 = getelementptr inbounds i8, ptr %this, i64 8
  %13 = load i64, ptr %max_ring_size22, align 8
  %cmp23 = icmp ugt i64 %12, %13
  br i1 %cmp23, label %if.then24, label %if.end26

if.then24:                                        ; preds = %_ZN9grpc_core16ValidationErrors11ScopedFieldD2Ev.exit19
  tail call void @_ZN9grpc_core16ValidationErrors8AddErrorESt17basic_string_viewIcSt11char_traitsIcEE(ptr noundef nonnull align 8 dereferenceable(72) %errors, i64 50, ptr nonnull @.str.8)
  br label %if.end26

if.end26:                                         ; preds = %if.then24, %_ZN9grpc_core16ValidationErrors11ScopedFieldD2Ev.exit19
  ret void

eh.resume:                                        ; preds = %lpad9, %lpad
  %field7.sink = phi ptr [ %field7, %lpad9 ], [ %field, %lpad ]
  %.pn = phi { ptr, i32 } [ %9, %lpad9 ], [ %4, %lpad ]
  call void @_ZN9grpc_core16ValidationErrors11ScopedFieldD2Ev(ptr noundef nonnull align 8 dereferenceable(8) %field7.sink) #23
  resume { ptr, i32 } %.pn
}